target datalayout = "e-m:e-p270:32:32-p271:32:32-p272:64:64-i64:64-i128:128-f80:128-n8:16:32:64-S128"
target triple = "x86_64-pc-linux-gnu"

; Function Attrs: inlinehint nounwind uwtable
define internal void @ForceZero(ptr noundef %0, i32 noundef %1) #3 {
  %3 = alloca ptr, align 8
  %4 = alloca i32, align 4
  %5 = alloca ptr, align 8
  %6 = alloca ptr, align 8
  %7 = alloca i32, align 4
  store ptr %0, ptr %3, align 8, !tbaa !10
  store i32 %1, ptr %4, align 4, !tbaa !8
  call void @llvm.lifetime.start.p0(i64 8, ptr %5) #6
  %8 = load ptr, ptr %3, align 8, !tbaa !10
  store ptr %8, ptr %5, align 8, !tbaa !3
  call void @llvm.lifetime.start.p0(i64 8, ptr %6) #6
  call void @llvm.lifetime.start.p0(i64 4, ptr %7) #6
  %9 = load ptr, ptr %5, align 8, !tbaa !3
  %10 = ptrtoint ptr %9 to i64
  %11 = and i64 %10, 7
  %12 = sub i64 8, %11
  %13 = and i64 %12, 7
  %14 = trunc i64 %13 to i32
  store i32 %14, ptr %7, align 4, !tbaa !8
  %15 = load i32, ptr %4, align 4, !tbaa !8
  %16 = load i32, ptr %7, align 4, !tbaa !8
  %17 = icmp ult i32 %15, %16
  br i1 %17, label %18, label %20

18:                                               ; preds = %2
  %19 = load i32, ptr %4, align 4, !tbaa !8
  store i32 %19, ptr %7, align 4, !tbaa !8
  br label %20

20:                                               ; preds = %18, %2
  %21 = load i32, ptr %7, align 4, !tbaa !8
  %22 = load i32, ptr %4, align 4, !tbaa !8
  %23 = sub i32 %22, %21
  store i32 %23, ptr %4, align 4, !tbaa !8
  br label %24

24:                                               ; preds = %28, %20
  %25 = load i32, ptr %7, align 4, !tbaa !8
  %26 = add i32 %25, -1
  store i32 %26, ptr %7, align 4, !tbaa !8
  %27 = icmp ne i32 %25, 0
  br i1 %27, label %28, label %31

28:                                               ; preds = %24
  %29 = load ptr, ptr %5, align 8, !tbaa !3
  %30 = getelementptr inbounds nuw i8, ptr %29, i32 1
  store ptr %30, ptr %5, align 8, !tbaa !3
  store volatile i8 0, ptr %29, align 1, !tbaa !13
  br label %24, !llvm.loop !14

31:                                               ; preds = %24
  %32 = load ptr, ptr %5, align 8, !tbaa !3
  store ptr %32, ptr %6, align 8, !tbaa !15
  br label %33

33:                                               ; preds = %40, %31
  %34 = load i32, ptr %4, align 4, !tbaa !8
  %35 = zext i32 %34 to i64
  %36 = icmp uge i64 %35, 8
  br i1 %36, label %37, label %43

37:                                               ; preds = %33
  %38 = load ptr, ptr %6, align 8, !tbaa !15
  %39 = getelementptr inbounds nuw i64, ptr %38, i32 1
  store ptr %39, ptr %6, align 8, !tbaa !15
  store volatile i64 0, ptr %38, align 8, !tbaa !17
  br label %40

40:                                               ; preds = %37
  %41 = load i32, ptr %4, align 4, !tbaa !8
  %42 = sub i32 %41, 8
  store i32 %42, ptr %4, align 4, !tbaa !8
  br label %33, !llvm.loop !19

43:                                               ; preds = %33
  %44 = load ptr, ptr %6, align 8, !tbaa !15
  store ptr %44, ptr %5, align 8, !tbaa !3
  br label %45

45:                                               ; preds = %49, %43
  %46 = load i32, ptr %4, align 4, !tbaa !8
  %47 = add i32 %46, -1
  store i32 %47, ptr %4, align 4, !tbaa !8
  %48 = icmp ne i32 %46, 0
  br i1 %48, label %49, label %52

49:                                               ; preds = %45
  %50 = load ptr, ptr %5, align 8, !tbaa !3
  %51 = getelementptr inbounds nuw i8, ptr %50, i32 1
  store ptr %51, ptr %5, align 8, !tbaa !3
  store volatile i8 0, ptr %50, align 1, !tbaa !13
  br label %45, !llvm.loop !20

52:                                               ; preds = %45
  call void @llvm.lifetime.end.p0(i64 4, ptr %7) #6
  call void @llvm.lifetime.end.p0(i64 8, ptr %6) #6
  call void @llvm.lifetime.end.p0(i64 8, ptr %5) #6
  ret void
}

; Function Attrs: nounwind uwtable
define i32 @wc_Tls13_HKDF_Expand_Label_ex(ptr noundef %0, i32 noundef %1, ptr noundef %2, i32 noundef %3, ptr noundef %4, i32 noundef %5, ptr noundef %6, i32 noundef %7, ptr noundef %8, i32 noundef %9, i32 noundef %10, ptr noundef %11, i32 noundef %12) #0 {
  %14 = alloca i32, align 4
  %15 = alloca ptr, align 8
  %16 = alloca i32, align 4
  %17 = alloca ptr, align 8
  %18 = alloca i32, align 4
  %19 = alloca ptr, align 8
  %20 = alloca i32, align 4
  %21 = alloca ptr, align 8
  %22 = alloca i32, align 4
  %23 = alloca ptr, align 8
  %24 = alloca i32, align 4
  %25 = alloca i32, align 4
  %26 = alloca ptr, align 8
  %27 = alloca i32, align 4
  %28 = alloca i32, align 4
  %29 = alloca i32, align 4
  %30 = alloca [111 x i8], align 16
  %31 = alloca i32, align 4
  store ptr %0, ptr %15, align 8, !tbaa !3
  store i32 %1, ptr %16, align 4, !tbaa !8
  store ptr %2, ptr %17, align 8, !tbaa !3
  store i32 %3, ptr %18, align 4, !tbaa !8
  store ptr %4, ptr %19, align 8, !tbaa !3
  store i32 %5, ptr %20, align 4, !tbaa !8
  store ptr %6, ptr %21, align 8, !tbaa !3
  store i32 %7, ptr %22, align 4, !tbaa !8
  store ptr %8, ptr %23, align 8, !tbaa !3
  store i32 %9, ptr %24, align 4, !tbaa !8
  store i32 %10, ptr %25, align 4, !tbaa !8
  store ptr %11, ptr %26, align 8, !tbaa !10
  store i32 %12, ptr %27, align 4, !tbaa !8
  call void @llvm.lifetime.start.p0(i64 4, ptr %28) #6
  store i32 0, ptr %28, align 4, !tbaa !8
  call void @llvm.lifetime.start.p0(i64 4, ptr %29) #6
  store i32 0, ptr %29, align 4, !tbaa !8
  call void @llvm.lifetime.start.p0(i64 111, ptr %30) #6
  %32 = load i32, ptr %20, align 4, !tbaa !8
  %33 = add i32 4, %32
  %34 = load i32, ptr %22, align 4, !tbaa !8
  %35 = add i32 %33, %34
  %36 = load i32, ptr %24, align 4, !tbaa !8
  %37 = add i32 %35, %36
  store i32 %37, ptr %29, align 4, !tbaa !8
  %38 = load i32, ptr %29, align 4, !tbaa !8
  %39 = icmp ugt i32 %38, 111
  br i1 %39, label %40, label %41

40:                                               ; preds = %13
  store i32 -132, ptr %14, align 4
  store i32 1, ptr %31, align 4
  br label %121

41:                                               ; preds = %13
  store i32 0, ptr %29, align 4, !tbaa !8
  %42 = load i32, ptr %16, align 4, !tbaa !8
  %43 = lshr i32 %42, 8
  %44 = trunc i32 %43 to i8
  %45 = load i32, ptr %29, align 4, !tbaa !8
  %46 = add i32 %45, 1
  store i32 %46, ptr %29, align 4, !tbaa !8
  %47 = zext i32 %45 to i64
  %48 = getelementptr inbounds nuw [111 x i8], ptr %30, i64 0, i64 %47
  store i8 %44, ptr %48, align 1, !tbaa !13
  %49 = load i32, ptr %16, align 4, !tbaa !8
  %50 = trunc i32 %49 to i8
  %51 = load i32, ptr %29, align 4, !tbaa !8
  %52 = add i32 %51, 1
  store i32 %52, ptr %29, align 4, !tbaa !8
  %53 = zext i32 %51 to i64
  %54 = getelementptr inbounds nuw [111 x i8], ptr %30, i64 0, i64 %53
  store i8 %50, ptr %54, align 1, !tbaa !13
  %55 = load i32, ptr %20, align 4, !tbaa !8
  %56 = load i32, ptr %22, align 4, !tbaa !8
  %57 = add i32 %55, %56
  %58 = trunc i32 %57 to i8
  %59 = load i32, ptr %29, align 4, !tbaa !8
  %60 = add i32 %59, 1
  store i32 %60, ptr %29, align 4, !tbaa !8
  %61 = zext i32 %59 to i64
  %62 = getelementptr inbounds nuw [111 x i8], ptr %30, i64 0, i64 %61
  store i8 %58, ptr %62, align 1, !tbaa !13
  %63 = load i32, ptr %20, align 4, !tbaa !8
  %64 = icmp ugt i32 %63, 0
  br i1 %64, label %65, label %75

65:                                               ; preds = %41
  %66 = load i32, ptr %29, align 4, !tbaa !8
  %67 = zext i32 %66 to i64
  %68 = getelementptr inbounds nuw [111 x i8], ptr %30, i64 0, i64 %67
  %69 = load ptr, ptr %19, align 8, !tbaa !3
  %70 = load i32, ptr %20, align 4, !tbaa !8
  %71 = zext i32 %70 to i64
  call void @llvm.memcpy.p0.p0.i64(ptr align 1 %68, ptr align 1 %69, i64 %71, i1 false)
  %72 = load i32, ptr %20, align 4, !tbaa !8
  %73 = load i32, ptr %29, align 4, !tbaa !8
  %74 = add i32 %73, %72
  store i32 %74, ptr %29, align 4, !tbaa !8
  br label %75

75:                                               ; preds = %65, %41
  %76 = load i32, ptr %22, align 4, !tbaa !8
  %77 = icmp ugt i32 %76, 0
  br i1 %77, label %78, label %88

78:                                               ; preds = %75
  %79 = load i32, ptr %29, align 4, !tbaa !8
  %80 = zext i32 %79 to i64
  %81 = getelementptr inbounds nuw [111 x i8], ptr %30, i64 0, i64 %80
  %82 = load ptr, ptr %21, align 8, !tbaa !3
  %83 = load i32, ptr %22, align 4, !tbaa !8
  %84 = zext i32 %83 to i64
  call void @llvm.memcpy.p0.p0.i64(ptr align 1 %81, ptr align 1 %82, i64 %84, i1 false)
  %85 = load i32, ptr %22, align 4, !tbaa !8
  %86 = load i32, ptr %29, align 4, !tbaa !8
  %87 = add i32 %86, %85
  store i32 %87, ptr %29, align 4, !tbaa !8
  br label %88

88:                                               ; preds = %78, %75
  %89 = load i32, ptr %24, align 4, !tbaa !8
  %90 = trunc i32 %89 to i8
  %91 = load i32, ptr %29, align 4, !tbaa !8
  %92 = add i32 %91, 1
  store i32 %92, ptr %29, align 4, !tbaa !8
  %93 = zext i32 %91 to i64
  %94 = getelementptr inbounds nuw [111 x i8], ptr %30, i64 0, i64 %93
  store i8 %90, ptr %94, align 1, !tbaa !13
  %95 = load i32, ptr %24, align 4, !tbaa !8
  %96 = icmp ugt i32 %95, 0
  br i1 %96, label %97, label %107

97:                                               ; preds = %88
  %98 = load i32, ptr %29, align 4, !tbaa !8
  %99 = zext i32 %98 to i64
  %100 = getelementptr inbounds nuw [111 x i8], ptr %30, i64 0, i64 %99
  %101 = load ptr, ptr %23, align 8, !tbaa !3
  %102 = load i32, ptr %24, align 4, !tbaa !8
  %103 = zext i32 %102 to i64
  call void @llvm.memcpy.p0.p0.i64(ptr align 1 %100, ptr align 1 %101, i64 %103, i1 false)
  %104 = load i32, ptr %24, align 4, !tbaa !8
  %105 = load i32, ptr %29, align 4, !tbaa !8
  %106 = add i32 %105, %104
  store i32 %106, ptr %29, align 4, !tbaa !8
  br label %107

107:                                              ; preds = %97, %88
  %108 = load i32, ptr %25, align 4, !tbaa !8
  %109 = load ptr, ptr %17, align 8, !tbaa !3
  %110 = load i32, ptr %18, align 4, !tbaa !8
  %111 = getelementptr inbounds [111 x i8], ptr %30, i64 0, i64 0
  %112 = load i32, ptr %29, align 4, !tbaa !8
  %113 = load ptr, ptr %15, align 8, !tbaa !3
  %114 = load i32, ptr %16, align 4, !tbaa !8
  %115 = load ptr, ptr %26, align 8, !tbaa !10
  %116 = load i32, ptr %27, align 4, !tbaa !8
  %117 = call i32 @wc_HKDF_Expand_ex(i32 noundef %108, ptr noundef %109, i32 noundef %110, ptr noundef %111, i32 noundef %112, ptr noundef %113, i32 noundef %114, ptr noundef %115, i32 noundef %116)
  store i32 %117, ptr %28, align 4, !tbaa !8
  %118 = getelementptr inbounds [111 x i8], ptr %30, i64 0, i64 0
  %119 = load i32, ptr %29, align 4, !tbaa !8
  call void @ForceZero(ptr noundef %118, i32 noundef %119)
  %120 = load i32, ptr %28, align 4, !tbaa !8
  store i32 %120, ptr %14, align 4
  store i32 1, ptr %31, align 4
  br label %121

121:                                              ; preds = %107, %40
  call void @llvm.lifetime.end.p0(i64 111, ptr %30) #6
  call void @llvm.lifetime.end.p0(i64 4, ptr %29) #6
  call void @llvm.lifetime.end.p0(i64 4, ptr %28) #6
  %122 = load i32, ptr %14, align 4
  ret i32 %122
}