; Function Attrs: nounwind uwtable
define i32 @wc_Tls13_HKDF_Expand_Label_ex(ptr noundef %0, i32 noundef %1, ptr noundef %2, i32 noundef %3, ptr noundef readonly captures(none) %4, i32 noundef %5, ptr noundef readonly captures(none) %6, i32 noundef %7, ptr noundef readonly captures(none) %8, i32 noundef %9, i32 noundef %10, ptr noundef %11, i32 noundef %12) local_unnamed_addr #0 {
  %14 = alloca [111 x i8], align 16
  call void @llvm.lifetime.start.p0(i64 111, ptr nonnull %14) #6
  %15 = add i32 %7, %5
  %16 = add i32 %15, 4
  %17 = add i32 %16, %9
  %18 = icmp ugt i32 %17, 111
  br i1 %18, label %ForceZero.exit, label %19

19:                                               ; preds = %13
  %20 = lshr i32 %1, 8
  %21 = trunc i32 %20 to i8
  store i8 %21, ptr %14, align 16, !tbaa !11
  %22 = trunc i32 %1 to i8
  %23 = getelementptr inbounds nuw i8, ptr %14, i64 1
  store i8 %22, ptr %23, align 1, !tbaa !11
  %24 = trunc i32 %15 to i8
  %25 = getelementptr inbounds nuw i8, ptr %14, i64 2
  store i8 %24, ptr %25, align 2, !tbaa !11
  %.not = icmp eq i32 %5, 0
  br i1 %.not, label %30, label %26

26:                                               ; preds = %19
  %27 = getelementptr inbounds nuw i8, ptr %14, i64 3
  %28 = zext i32 %5 to i64
  call void @llvm.memcpy.p0.p0.i64(ptr nonnull align 1 %27, ptr align 1 %4, i64 %28, i1 false)
  %29 = add i32 %5, 3
  br label %30

30:                                               ; preds = %26, %19
  %.0 = phi i32 [ %29, %26 ], [ 3, %19 ]
  %.not45 = icmp eq i32 %7, 0
  br i1 %.not45, label %36, label %31

31:                                               ; preds = %30
  %32 = zext i32 %.0 to i64
  %33 = getelementptr inbounds nuw [111 x i8], ptr %14, i64 0, i64 %32
  %34 = zext i32 %7 to i64
  call void @llvm.memcpy.p0.p0.i64(ptr nonnull align 1 %33, ptr align 1 %6, i64 %34, i1 false)
  %35 = add i32 %.0, %7
  br label %36

36:                                               ; preds = %31, %30
  %.1 = phi i32 [ %35, %31 ], [ %.0, %30 ]
  %37 = trunc i32 %9 to i8
  %38 = add i32 %.1, 1
  %39 = zext i32 %.1 to i64
  %40 = getelementptr inbounds nuw [111 x i8], ptr %14, i64 0, i64 %39
  store i8 %37, ptr %40, align 1, !tbaa !11
  %.not46 = icmp eq i32 %9, 0
  br i1 %.not46, label %.preheader23.i, label %41

41:                                               ; preds = %36
  %42 = zext i32 %38 to i64
  %43 = getelementptr inbounds nuw [111 x i8], ptr %14, i64 0, i64 %42
  %44 = zext i32 %9 to i64
  call void @llvm.memcpy.p0.p0.i64(ptr nonnull align 1 %43, ptr align 1 %8, i64 %44, i1 false)
  %45 = add i32 %38, %9
  br label %.preheader23.i

.preheader23.i:                                   ; preds = %41, %36
  %.2 = phi i32 [ %45, %41 ], [ %38, %36 ]
  %46 = call i32 @wc_HKDF_Expand_ex(i32 noundef %10, ptr noundef %2, i32 noundef %3, ptr noundef nonnull %14, i32 noundef %.2, ptr noundef %0, i32 noundef %1, ptr noundef %11, i32 noundef %12) #6
  %47 = icmp ugt i32 %.2, 7
  br i1 %47, label %.lr.ph29.i, label %.preheader.i

.preheader.i:                                     ; preds = %.lr.ph29.i, %.preheader23.i
  %.018.lcssa.i = phi i32 [ %.2, %.preheader23.i ], [ %49, %.lr.ph29.i ]
  %.015.lcssa.i = phi ptr [ %14, %.preheader23.i ], [ %48, %.lr.ph29.i ]
  %.not2232.i = icmp eq i32 %.018.lcssa.i, 0
  br i1 %.not2232.i, label %ForceZero.exit, label %.lr.ph35.i

.lr.ph29.i:                                       ; preds = %.preheader23.i, %.lr.ph29.i
  %.01528.i = phi ptr [ %48, %.lr.ph29.i ], [ %14, %.preheader23.i ]
  %.01827.i = phi i32 [ %49, %.lr.ph29.i ], [ %.2, %.preheader23.i ]
  %48 = getelementptr inbounds nuw i8, ptr %.01528.i, i64 8
  store volatile i64 0, ptr %.01528.i, align 8, !tbaa !5
  %49 = add i32 %.01827.i, -8
  %50 = icmp ugt i32 %49, 7
  br i1 %50, label %.lr.ph29.i, label %.preheader.i, !llvm.loop !9

.lr.ph35.i:                                       ; preds = %.preheader.i, %.lr.ph35.i
  %.11734.i = phi ptr [ %52, %.lr.ph35.i ], [ %.015.lcssa.i, %.preheader.i ]
  %.11933.i = phi i32 [ %51, %.lr.ph35.i ], [ %.018.lcssa.i, %.preheader.i ]
  %51 = add i32 %.11933.i, -1
  %52 = getelementptr inbounds nuw i8, ptr %.11734.i, i64 1
  store volatile i8 0, ptr %.11734.i, align 1, !tbaa !11
  %.not22.i = icmp eq i32 %51, 0
  br i1 %.not22.i, label %ForceZero.exit, label %.lr.ph35.i, !llvm.loop !13

ForceZero.exit:                                   ; preds = %.lr.ph35.i, %.preheader.i, %13
  %.041 = phi i32 [ -132, %13 ], [ %46, %.preheader.i ], [ %46, %.lr.ph35.i ]
  call void @llvm.lifetime.end.p0(i64 111, ptr nonnull %14) #6
  ret i32 %.041
}